target datalayout = "e-m:e-p270:32:32-p271:32:32-p272:64:64-i64:64-i128:128-f80:128-n8:16:32:64-S128"
target triple = "x86_64-unknown-linux-gnu"

%class.region = type { ptr, ptr, ptr, ptr, ptr }

@.str = private unnamed_addr constant [18 x i8] c"num. pages:      \00", align 1
@.str.1 = private unnamed_addr constant [2 x i8] c"\0A\00", align 1

; Function Attrs: mustprogress nounwind uwtable
define linkonce_odr hidden noundef ptr @_Z9prev_pagePc(ptr noundef %page) #5 comdat {
entry:
  %page.addr = alloca ptr, align 8
  %tagged_ptr = alloca i64, align 8
  store ptr %page, ptr %page.addr, align 8
  %0 = load ptr, ptr %page.addr, align 8
  %arrayidx = getelementptr inbounds i64, ptr %0, i64 -1
  %1 = load i64, ptr %arrayidx, align 8
  store i64 %1, ptr %tagged_ptr, align 8
  %2 = load i64, ptr %tagged_ptr, align 8
  %and = and i64 %2, -2
  %3 = inttoptr i64 %and to ptr
  ret ptr %3
}

; Function Attrs: mustprogress uwtable
define hidden void @_ZNK6region17display_mem_statsERSo(ptr noundef nonnull align 8 dereferenceable(40) %this, ptr noundef nonnull align 8 dereferenceable(8) %out) #4 align 2 {
entry:
  %this.addr = alloca ptr, align 8
  %out.addr = alloca ptr, align 8
  %n = alloca i32, align 4
  %page = alloca ptr, align 8
  store ptr %this, ptr %this.addr, align 8
  store ptr %out, ptr %out.addr, align 8
  %this1 = load ptr, ptr %this.addr, align 8
  store i32 0, ptr %n, align 4
  %m_curr_page = getelementptr inbounds %class.region, ptr %this1, i32 0, i32 0
  %0 = load ptr, ptr %m_curr_page, align 8
  store ptr %0, ptr %page, align 8
  br label %while.cond

while.cond:                                       ; preds = %while.body, %entry
  %1 = load ptr, ptr %page, align 8
  %cmp = icmp ne ptr %1, null
  br i1 %cmp, label %while.body, label %while.end

while.body:                                       ; preds = %while.cond
  %2 = load i32, ptr %n, align 4
  %inc = add i32 %2, 1
  store i32 %inc, ptr %n, align 4
  %3 = load ptr, ptr %page, align 8
  %call = call noundef ptr @_Z9prev_pagePc(ptr noundef %3)
  store ptr %call, ptr %page, align 8
  br label %while.cond, !llvm.loop !7

while.end:                                        ; preds = %while.cond
  %4 = load ptr, ptr %out.addr, align 8
  %call2 = call noundef nonnull align 8 dereferenceable(8) ptr @_ZStlsISt11char_traitsIcEERSt13basic_ostreamIcT_ES5_PKc(ptr noundef nonnull align 8 dereferenceable(8) %4, ptr noundef @.str)
  %5 = load i32, ptr %n, align 4
  %call3 = call noundef nonnull align 8 dereferenceable(8) ptr @_ZNSolsEj(ptr noundef nonnull align 8 dereferenceable(8) %call2, i32 noundef %5)
  %call4 = call noundef nonnull align 8 dereferenceable(8) ptr @_ZStlsISt11char_traitsIcEERSt13basic_ostreamIcT_ES5_PKc(ptr noundef nonnull align 8 dereferenceable(8) %call3, ptr noundef @.str.1)
  ret void
}