; Function Attrs: mustprogress uwtable
define hidden void @_ZNK6region17display_mem_statsERSo(ptr noundef nonnull readonly align 8 captures(none) dereferenceable(40) %this, ptr noundef nonnull align 8 dereferenceable(8) %out) local_unnamed_addr #3 align 2 {
entry:
  %0 = load ptr, ptr %this, align 8
  %cmp.not3 = icmp eq ptr %0, null
  br i1 %cmp.not3, label %while.end, label %while.body

while.body:                                       ; preds = %entry, %while.body
  %page.05 = phi ptr [ %2, %while.body ], [ %0, %entry ]
  %n.04 = phi i32 [ %inc, %while.body ], [ 0, %entry ]
  %inc = add i32 %n.04, 1
  %arrayidx.i = getelementptr inbounds i8, ptr %page.05, i64 -8
  %1 = load i64, ptr %arrayidx.i, align 8
  %and.i = and i64 %1, -2
  %2 = inttoptr i64 %and.i to ptr
  %cmp.not = icmp eq i64 %and.i, 0
  br i1 %cmp.not, label %while.end, label %while.body, !llvm.loop !7

while.end:                                        ; preds = %while.body, %entry
  %n.0.lcssa = phi i32 [ 0, %entry ], [ %inc, %while.body ]
  %call2 = tail call noundef nonnull align 8 dereferenceable(8) ptr @_ZStlsISt11char_traitsIcEERSt13basic_ostreamIcT_ES5_PKc(ptr noundef nonnull align 8 dereferenceable(8) %out, ptr noundef nonnull @.str)
  %call3 = tail call noundef nonnull align 8 dereferenceable(8) ptr @_ZNSolsEj(ptr noundef nonnull align 8 dereferenceable(8) %call2, i32 noundef %n.0.lcssa)
  %call4 = tail call noundef nonnull align 8 dereferenceable(8) ptr @_ZStlsISt11char_traitsIcEERSt13basic_ostreamIcT_ES5_PKc(ptr noundef nonnull align 8 dereferenceable(8) %call3, ptr noundef nonnull @.str.1)
  ret void
}